; Function Attrs: mustprogress uwtable
define hidden noundef zeroext i1 @_ZNK2lp10int_solver17column_is_int_infEj(ptr noundef nonnull readonly align 8 captures(none) dereferenceable(32) %0, i32 noundef %1) local_unnamed_addr #4 align 2 {
  %3 = getelementptr inbounds nuw i8, ptr %0, i64 16
  %4 = load ptr, ptr %3, align 8, !tbaa !40
  %5 = getelementptr inbounds nuw i8, ptr %4, i64 8
  %6 = load ptr, ptr %5, align 8, !tbaa !237
  %7 = tail call noundef zeroext i1 @_ZNK2lp10lar_solver13column_is_intEj(ptr noundef nonnull align 8 dereferenceable(2128) %6, i32 noundef %1)
  br i1 %7, label %8, label %_ZNK2lp10int_solver3imp17column_is_int_infEj.exit

8:                                                ; preds = %2
  %9 = load ptr, ptr %4, align 8, !tbaa !254
  %10 = load ptr, ptr %9, align 8, !tbaa !43
  %11 = getelementptr inbounds nuw i8, ptr %10, i64 536
  %12 = load ptr, ptr %11, align 8, !tbaa !244
  %13 = zext i32 %1 to i64
  %14 = getelementptr inbounds nuw %"struct.lp::numeric_pair", ptr %12, i64 %13
  %15 = getelementptr inbounds nuw i8, ptr %14, i64 16
  %16 = getelementptr inbounds nuw i8, ptr %14, i64 20
  %17 = load i8, ptr %16, align 4
  %18 = and i8 %17, 1
  %19 = icmp eq i8 %18, 0
  %20 = load i32, ptr %15, align 8
  %21 = icmp eq i32 %20, 1
  %22 = select i1 %19, i1 %21, i1 false
  br i1 %22, label %23, label %_ZNK2lp10int_solver3imp17column_is_int_infEj.exit

23:                                               ; preds = %8
  %24 = getelementptr inbounds nuw i8, ptr %14, i64 32
  %25 = load i32, ptr %24, align 8, !tbaa !6
  %26 = icmp ne i32 %25, 0
  br label %_ZNK2lp10int_solver3imp17column_is_int_infEj.exit

_ZNK2lp10int_solver3imp17column_is_int_infEj.exit: ; preds = %2, %8, %23
  %27 = phi i1 [ false, %2 ], [ true, %8 ], [ %26, %23 ]
  ret i1 %27
}